target datalayout = "e-m:e-p270:32:32-p271:32:32-p272:64:64-i64:64-i128:128-f80:128-n8:16:32:64-S128"
target triple = "x86_64-pc-linux-gnu"

%"struct.p2t::Point" = type { double, double, %"class.std::vector" }
%"class.std::vector" = type { %"struct.std::_Vector_base" }
%"struct.std::_Vector_base" = type { %"struct.std::_Vector_base<p2t::Edge *, std::allocator<p2t::Edge *>>::_Vector_impl" }
%"struct.std::_Vector_base<p2t::Edge *, std::allocator<p2t::Edge *>>::_Vector_impl" = type { %"struct.std::_Vector_base<p2t::Edge *, std::allocator<p2t::Edge *>>::_Vector_impl_data" }
%"struct.std::_Vector_base<p2t::Edge *, std::allocator<p2t::Edge *>>::_Vector_impl_data" = type { ptr, ptr, ptr }
%"struct.p2t::Node" = type { ptr, ptr, ptr, ptr, double }
%"struct.p2t::Edge" = type { ptr, ptr }

; Function Attrs: mustprogress nounwind uwtable
define linkonce_odr noundef i32 @_ZSt10fpclassifyd(double noundef %0) #2 comdat {
  %2 = alloca double, align 8
  store double %0, ptr %2, align 8
  %3 = load double, ptr %2, align 8
  %4 = fcmp oeq double %3, 0.000000e+00
  br i1 %4, label %5, label %7

5:                                                ; preds = %12, %9, %7, %1
  %6 = phi i32 [ 2, %1 ], [ 0, %7 ], [ 1, %9 ], [ %14, %12 ]
  ret i32 %6

7:                                                ; preds = %1
  %8 = fcmp uno double %3, %3
  br i1 %8, label %5, label %9

9:                                                ; preds = %7
  %10 = call double @llvm.fabs.f64(double %3) #15
  %11 = fcmp oeq double %10, 0x7FF0000000000000
  br i1 %11, label %5, label %12

12:                                               ; preds = %9
  %13 = fcmp uge double %10, 0x10000000000000
  %14 = select i1 %13, i32 4, i32 3
  br label %5
}

; Function Attrs: mustprogress uwtable
define hidden noundef i32 @_ZN3p2t8Orient2dERKNS_5PointES2_S2_(ptr noundef nonnull align 8 dereferenceable(40) %0, ptr noundef nonnull align 8 dereferenceable(40) %1, ptr noundef nonnull align 8 dereferenceable(40) %2) #0 {
  %4 = alloca i32, align 4
  %5 = alloca ptr, align 8
  %6 = alloca ptr, align 8
  %7 = alloca ptr, align 8
  %8 = alloca double, align 8
  %9 = alloca double, align 8
  %10 = alloca double, align 8
  %11 = alloca i32, align 4
  store ptr %0, ptr %5, align 8
  store ptr %1, ptr %6, align 8
  store ptr %2, ptr %7, align 8
  call void @llvm.lifetime.start.p0(i64 8, ptr %8) #14
  %12 = load ptr, ptr %5, align 8
  %13 = getelementptr inbounds nuw %"struct.p2t::Point", ptr %12, i32 0, i32 0
  %14 = load double, ptr %13, align 8
  %15 = load ptr, ptr %7, align 8
  %16 = getelementptr inbounds nuw %"struct.p2t::Point", ptr %15, i32 0, i32 0
  %17 = load double, ptr %16, align 8
  %18 = fsub double %14, %17
  %19 = load ptr, ptr %6, align 8
  %20 = getelementptr inbounds nuw %"struct.p2t::Point", ptr %19, i32 0, i32 1
  %21 = load double, ptr %20, align 8
  %22 = load ptr, ptr %7, align 8
  %23 = getelementptr inbounds nuw %"struct.p2t::Point", ptr %22, i32 0, i32 1
  %24 = load double, ptr %23, align 8
  %25 = fsub double %21, %24
  %26 = fmul double %18, %25
  store double %26, ptr %8, align 8
  call void @llvm.lifetime.start.p0(i64 8, ptr %9) #14
  %27 = load ptr, ptr %5, align 8
  %28 = getelementptr inbounds nuw %"struct.p2t::Point", ptr %27, i32 0, i32 1
  %29 = load double, ptr %28, align 8
  %30 = load ptr, ptr %7, align 8
  %31 = getelementptr inbounds nuw %"struct.p2t::Point", ptr %30, i32 0, i32 1
  %32 = load double, ptr %31, align 8
  %33 = fsub double %29, %32
  %34 = load ptr, ptr %6, align 8
  %35 = getelementptr inbounds nuw %"struct.p2t::Point", ptr %34, i32 0, i32 0
  %36 = load double, ptr %35, align 8
  %37 = load ptr, ptr %7, align 8
  %38 = getelementptr inbounds nuw %"struct.p2t::Point", ptr %37, i32 0, i32 0
  %39 = load double, ptr %38, align 8
  %40 = fsub double %36, %39
  %41 = fmul double %33, %40
  store double %41, ptr %9, align 8
  call void @llvm.lifetime.start.p0(i64 8, ptr %10) #14
  %42 = load double, ptr %8, align 8
  %43 = load double, ptr %9, align 8
  %44 = fsub double %42, %43
  store double %44, ptr %10, align 8
  %45 = load double, ptr %10, align 8
  %46 = call noundef i32 @_ZSt10fpclassifyd(double noundef %45)
  %47 = icmp eq i32 %46, 2
  br i1 %47, label %48, label %49

48:                                               ; preds = %3
  store i32 2, ptr %4, align 4
  store i32 1, ptr %11, align 4
  br label %55

49:                                               ; preds = %3
  %50 = load double, ptr %10, align 8
  %51 = fcmp ogt double %50, 0.000000e+00
  br i1 %51, label %52, label %53

52:                                               ; preds = %49
  store i32 1, ptr %4, align 4
  store i32 1, ptr %11, align 4
  br label %55

53:                                               ; preds = %49
  br label %54

54:                                               ; preds = %53
  store i32 0, ptr %4, align 4
  store i32 1, ptr %11, align 4
  br label %55

55:                                               ; preds = %54, %52, %48
  call void @llvm.lifetime.end.p0(i64 8, ptr %10) #14
  call void @llvm.lifetime.end.p0(i64 8, ptr %9) #14
  call void @llvm.lifetime.end.p0(i64 8, ptr %8) #14
  %56 = load i32, ptr %4, align 4
  ret i32 %56
}

; Function Attrs: mustprogress uwtable
define hidden void @_ZN3p2t5Sweep25FillRightConcaveEdgeEventERNS_12SweepContextEPNS_4EdgeERNS_4NodeE(ptr noundef nonnull align 8 dereferenceable(24) %0, ptr noundef nonnull align 8 dereferenceable(200) %1, ptr noundef %2, ptr noundef nonnull align 8 dereferenceable(40) %3) #0 align 2 {
  %5 = alloca ptr, align 8
  %6 = alloca ptr, align 8
  %7 = alloca ptr, align 8
  %8 = alloca ptr, align 8
  store ptr %0, ptr %5, align 8
  store ptr %1, ptr %6, align 8
  store ptr %2, ptr %7, align 8
  store ptr %3, ptr %8, align 8
  %9 = load ptr, ptr %5, align 8
  %10 = load ptr, ptr %6, align 8
  %11 = load ptr, ptr %8, align 8
  %12 = getelementptr inbounds nuw %"struct.p2t::Node", ptr %11, i32 0, i32 2
  %13 = load ptr, ptr %12, align 8
  call void @_ZN3p2t5Sweep4FillERNS_12SweepContextERNS_4NodeE(ptr noundef nonnull align 8 dereferenceable(24) %9, ptr noundef nonnull align 8 dereferenceable(200) %10, ptr noundef nonnull align 8 dereferenceable(40) %13)
  %14 = load ptr, ptr %8, align 8
  %15 = getelementptr inbounds nuw %"struct.p2t::Node", ptr %14, i32 0, i32 2
  %16 = load ptr, ptr %15, align 8
  %17 = getelementptr inbounds nuw %"struct.p2t::Node", ptr %16, i32 0, i32 0
  %18 = load ptr, ptr %17, align 8
  %19 = load ptr, ptr %7, align 8
  %20 = getelementptr inbounds nuw %"struct.p2t::Edge", ptr %19, i32 0, i32 0
  %21 = load ptr, ptr %20, align 8
  %22 = icmp ne ptr %18, %21
  br i1 %22, label %23, label %62

23:                                               ; preds = %4
  %24 = load ptr, ptr %7, align 8
  %25 = getelementptr inbounds nuw %"struct.p2t::Edge", ptr %24, i32 0, i32 1
  %26 = load ptr, ptr %25, align 8
  %27 = load ptr, ptr %8, align 8
  %28 = getelementptr inbounds nuw %"struct.p2t::Node", ptr %27, i32 0, i32 2
  %29 = load ptr, ptr %28, align 8
  %30 = getelementptr inbounds nuw %"struct.p2t::Node", ptr %29, i32 0, i32 0
  %31 = load ptr, ptr %30, align 8
  %32 = load ptr, ptr %7, align 8
  %33 = getelementptr inbounds nuw %"struct.p2t::Edge", ptr %32, i32 0, i32 0
  %34 = load ptr, ptr %33, align 8
  %35 = call noundef i32 @_ZN3p2t8Orient2dERKNS_5PointES2_S2_(ptr noundef nonnull align 8 dereferenceable(40) %26, ptr noundef nonnull align 8 dereferenceable(40) %31, ptr noundef nonnull align 8 dereferenceable(40) %34)
  %36 = icmp eq i32 %35, 1
  br i1 %36, label %37, label %61

37:                                               ; preds = %23
  %38 = load ptr, ptr %8, align 8
  %39 = getelementptr inbounds nuw %"struct.p2t::Node", ptr %38, i32 0, i32 0
  %40 = load ptr, ptr %39, align 8
  %41 = load ptr, ptr %8, align 8
  %42 = getelementptr inbounds nuw %"struct.p2t::Node", ptr %41, i32 0, i32 2
  %43 = load ptr, ptr %42, align 8
  %44 = getelementptr inbounds nuw %"struct.p2t::Node", ptr %43, i32 0, i32 0
  %45 = load ptr, ptr %44, align 8
  %46 = load ptr, ptr %8, align 8
  %47 = getelementptr inbounds nuw %"struct.p2t::Node", ptr %46, i32 0, i32 2
  %48 = load ptr, ptr %47, align 8
  %49 = getelementptr inbounds nuw %"struct.p2t::Node", ptr %48, i32 0, i32 2
  %50 = load ptr, ptr %49, align 8
  %51 = getelementptr inbounds nuw %"struct.p2t::Node", ptr %50, i32 0, i32 0
  %52 = load ptr, ptr %51, align 8
  %53 = call noundef i32 @_ZN3p2t8Orient2dERKNS_5PointES2_S2_(ptr noundef nonnull align 8 dereferenceable(40) %40, ptr noundef nonnull align 8 dereferenceable(40) %45, ptr noundef nonnull align 8 dereferenceable(40) %52)
  %54 = icmp eq i32 %53, 1
  br i1 %54, label %55, label %59

55:                                               ; preds = %37
  %56 = load ptr, ptr %6, align 8
  %57 = load ptr, ptr %7, align 8
  %58 = load ptr, ptr %8, align 8
  call void @_ZN3p2t5Sweep25FillRightConcaveEdgeEventERNS_12SweepContextEPNS_4EdgeERNS_4NodeE(ptr noundef nonnull align 8 dereferenceable(24) %9, ptr noundef nonnull align 8 dereferenceable(200) %56, ptr noundef %57, ptr noundef nonnull align 8 dereferenceable(40) %58)
  br label %60

59:                                               ; preds = %37
  br label %60

60:                                               ; preds = %59, %55
  br label %61

61:                                               ; preds = %60, %23
  br label %62

62:                                               ; preds = %61, %4
  ret void
}