; Function Attrs: mustprogress uwtable
define hidden void @_ZN3p2t5Sweep25FillRightConcaveEdgeEventERNS_12SweepContextEPNS_4EdgeERNS_4NodeE(ptr noundef nonnull align 8 dereferenceable(24) %0, ptr noundef nonnull align 8 dereferenceable(200) %1, ptr noundef readonly captures(none) %2, ptr noundef nonnull readonly align 8 captures(none) dereferenceable(40) %3) local_unnamed_addr #2 align 2 {
  %5 = getelementptr inbounds nuw i8, ptr %2, i64 8
  %6 = getelementptr inbounds nuw i8, ptr %3, i64 16
  %.pre = load ptr, ptr %6, align 8
  br label %tailrecurse

tailrecurse:                                      ; preds = %29, %4
  %7 = phi ptr [ %8, %29 ], [ %.pre, %4 ]
  tail call void @_ZN3p2t5Sweep4FillERNS_12SweepContextERNS_4NodeE(ptr noundef nonnull align 8 dereferenceable(24) %0, ptr noundef nonnull align 8 dereferenceable(200) %1, ptr noundef nonnull align 8 dereferenceable(40) %7)
  %8 = load ptr, ptr %6, align 8
  %9 = load ptr, ptr %8, align 8
  %10 = load ptr, ptr %2, align 8
  %.not = icmp eq ptr %9, %10
  br i1 %.not, label %47, label %11

11:                                               ; preds = %tailrecurse
  %12 = load ptr, ptr %5, align 8
  %13 = load double, ptr %12, align 8
  %14 = load double, ptr %10, align 8
  %15 = fsub double %13, %14
  %16 = getelementptr inbounds nuw i8, ptr %9, i64 8
  %17 = load double, ptr %16, align 8
  %18 = getelementptr inbounds nuw i8, ptr %10, i64 8
  %19 = load double, ptr %18, align 8
  %20 = fsub double %17, %19
  %21 = fmul double %15, %20
  %22 = getelementptr inbounds nuw i8, ptr %12, i64 8
  %23 = load double, ptr %22, align 8
  %24 = fsub double %23, %19
  %25 = load double, ptr %9, align 8
  %26 = fsub double %25, %14
  %27 = fmul double %24, %26
  %28 = fcmp ogt double %21, %27
  br i1 %28, label %29, label %47

29:                                               ; preds = %11
  %30 = load ptr, ptr %3, align 8
  %31 = getelementptr inbounds nuw i8, ptr %8, i64 16
  %32 = load ptr, ptr %31, align 8
  %33 = load ptr, ptr %32, align 8
  %34 = load double, ptr %30, align 8
  %35 = load double, ptr %33, align 8
  %36 = fsub double %34, %35
  %37 = getelementptr inbounds nuw i8, ptr %33, i64 8
  %38 = load double, ptr %37, align 8
  %39 = fsub double %17, %38
  %40 = fmul double %36, %39
  %41 = getelementptr inbounds nuw i8, ptr %30, i64 8
  %42 = load double, ptr %41, align 8
  %43 = fsub double %42, %38
  %44 = fsub double %25, %35
  %45 = fmul double %44, %43
  %46 = fcmp ogt double %40, %45
  br i1 %46, label %tailrecurse, label %47

47:                                               ; preds = %11, %29, %tailrecurse
  ret void
}